target datalayout = "e-m:e-p270:32:32-p271:32:32-p272:64:64-i64:64-i128:128-f80:128-n8:16:32:64-S128"
target triple = "x86_64-pc-linux-gnu"

%struct.TCGOp = type { i32, i32, %union.anon, [2 x i32], [0 x i64] }
%union.anon = type { %struct.QTailQLink }
%struct.QTailQLink = type { ptr, ptr }

; Function Attrs: noinline nounwind sspstrong uwtable
define dso_local ptr @tcg_gen_op4(i32 noundef %0, i32 noundef %1, i64 noundef %2, i64 noundef %3, i64 noundef %4, i64 noundef %5) #0 {
  %7 = alloca i32, align 4
  %8 = alloca i32, align 4
  %9 = alloca i64, align 8
  %10 = alloca i64, align 8
  %11 = alloca i64, align 8
  %12 = alloca i64, align 8
  %13 = alloca ptr, align 8
  store i32 %0, ptr %7, align 4
  store i32 %1, ptr %8, align 4
  store i64 %2, ptr %9, align 8
  store i64 %3, ptr %10, align 8
  store i64 %4, ptr %11, align 8
  store i64 %5, ptr %12, align 8
  call void @llvm.lifetime.start.p0(i64 8, ptr %13) #7
  %14 = load i32, ptr %7, align 4
  %15 = call ptr @tcg_emit_op(i32 noundef %14, i32 noundef 4)
  store ptr %15, ptr %13, align 8
  %16 = load i32, ptr %8, align 4
  %17 = load ptr, ptr %13, align 8
  %18 = load i32, ptr %17, align 8
  %19 = and i32 %16, 255
  %20 = shl i32 %19, 16
  %21 = and i32 %18, -16711681
  %22 = or i32 %21, %20
  store i32 %22, ptr %17, align 8
  %23 = load i64, ptr %9, align 8
  %24 = load ptr, ptr %13, align 8
  %25 = getelementptr inbounds nuw %struct.TCGOp, ptr %24, i32 0, i32 4
  %26 = getelementptr inbounds [0 x i64], ptr %25, i64 0, i64 0
  store i64 %23, ptr %26, align 8
  %27 = load i64, ptr %10, align 8
  %28 = load ptr, ptr %13, align 8
  %29 = getelementptr inbounds nuw %struct.TCGOp, ptr %28, i32 0, i32 4
  %30 = getelementptr inbounds [0 x i64], ptr %29, i64 0, i64 1
  store i64 %27, ptr %30, align 8
  %31 = load i64, ptr %11, align 8
  %32 = load ptr, ptr %13, align 8
  %33 = getelementptr inbounds nuw %struct.TCGOp, ptr %32, i32 0, i32 4
  %34 = getelementptr inbounds [0 x i64], ptr %33, i64 0, i64 2
  store i64 %31, ptr %34, align 8
  %35 = load i64, ptr %12, align 8
  %36 = load ptr, ptr %13, align 8
  %37 = getelementptr inbounds nuw %struct.TCGOp, ptr %36, i32 0, i32 4
  %38 = getelementptr inbounds [0 x i64], ptr %37, i64 0, i64 3
  store i64 %35, ptr %38, align 8
  %39 = load ptr, ptr %13, align 8
  call void @llvm.lifetime.end.p0(i64 8, ptr %13) #7
  ret ptr %39
}