; Function Attrs: noinline nounwind sspstrong uwtable
define dso_local noundef ptr @tcg_gen_op4(i32 noundef %0, i32 noundef %1, i64 noundef %2, i64 noundef %3, i64 noundef %4, i64 noundef %5) local_unnamed_addr #0 {
  %7 = tail call ptr @tcg_emit_op(i32 noundef %0, i32 noundef 4) #6
  %8 = load i32, ptr %7, align 8
  %9 = shl i32 %1, 16
  %10 = and i32 %9, 16711680
  %11 = and i32 %8, -16711681
  %12 = or disjoint i32 %11, %10
  store i32 %12, ptr %7, align 8
  %13 = getelementptr inbounds nuw i8, ptr %7, i64 32
  store i64 %2, ptr %13, align 8
  %14 = getelementptr inbounds nuw i8, ptr %7, i64 40
  store i64 %3, ptr %14, align 8
  %15 = getelementptr inbounds nuw i8, ptr %7, i64 48
  store i64 %4, ptr %15, align 8
  %16 = getelementptr inbounds nuw i8, ptr %7, i64 56
  store i64 %5, ptr %16, align 8
  ret ptr %7
}